target datalayout = "e-m:e-p270:32:32-p271:32:32-p272:64:64-i64:64-i128:128-f80:128-n8:16:32:64-S128"
target triple = "x86_64-pc-linux-gnu"

%struct.job_details_t = type { i32, ptr, i64, ptr, i32, ptr, i64, ptr, i16, i16, ptr, i16, i32, i32, i32, i16, ptr, i16, ptr, ptr, ptr, i16, ptr, ptr, ptr, ptr, i32, ptr, ptr, ptr, ptr, ptr, i32, i32, i32, ptr, ptr, i16, i32, i32, i32, i32, i32, i32, i16, i16, i32, i8, i8, i32, i32, i64, i64, i16, i32, ptr, ptr, i8, ptr, i32, ptr, i64, ptr, ptr, i16, i16, i16, i8, ptr, ptr, ptr, ptr, ptr, ptr, i64, i32, i32, i8, ptr, i16, ptr, ptr, i16 }

; Function Attrs: nounwind uwtable
define dso_local i64 @eval_nodes_get_rem_max_cpus(ptr noundef %0, i32 noundef %1) #0 {
  %3 = alloca ptr, align 8
  %4 = alloca i32, align 4
  %5 = alloca i64, align 8
  store ptr %0, ptr %3, align 8
  store i32 %1, ptr %4, align 4
  call void @llvm.lifetime.start.p0(i64 8, ptr %5) #4
  %6 = load ptr, ptr %3, align 8
  %7 = getelementptr inbounds nuw %struct.job_details_t, ptr %6, i32 0, i32 38
  %8 = load i32, ptr %7, align 4
  %9 = zext i32 %8 to i64
  store i64 %9, ptr %5, align 8
  %10 = load ptr, ptr %3, align 8
  %11 = getelementptr inbounds nuw %struct.job_details_t, ptr %10, i32 0, i32 32
  %12 = load i32, ptr %11, align 8
  %13 = icmp ne i32 %12, -2
  br i1 %13, label %14, label %19

14:                                               ; preds = %2
  %15 = load ptr, ptr %3, align 8
  %16 = getelementptr inbounds nuw %struct.job_details_t, ptr %15, i32 0, i32 32
  %17 = load i32, ptr %16, align 8
  %18 = zext i32 %17 to i64
  store i64 %18, ptr %5, align 8
  br label %19

19:                                               ; preds = %14, %2
  %20 = load ptr, ptr %3, align 8
  %21 = getelementptr inbounds nuw %struct.job_details_t, ptr %20, i32 0, i32 40
  %22 = load i32, ptr %21, align 4
  %23 = icmp ne i32 %22, 0
  br i1 %23, label %24, label %44

24:                                               ; preds = %19
  %25 = load i64, ptr %5, align 8
  %26 = load ptr, ptr %3, align 8
  %27 = getelementptr inbounds nuw %struct.job_details_t, ptr %26, i32 0, i32 40
  %28 = load i32, ptr %27, align 4
  %29 = load i32, ptr %4, align 4
  %30 = mul nsw i32 %28, %29
  %31 = sext i32 %30 to i64
  %32 = icmp sgt i64 %25, %31
  br i1 %32, label %33, label %35

33:                                               ; preds = %24
  %34 = load i64, ptr %5, align 8
  br label %42

35:                                               ; preds = %24
  %36 = load ptr, ptr %3, align 8
  %37 = getelementptr inbounds nuw %struct.job_details_t, ptr %36, i32 0, i32 40
  %38 = load i32, ptr %37, align 4
  %39 = load i32, ptr %4, align 4
  %40 = mul nsw i32 %38, %39
  %41 = sext i32 %40 to i64
  br label %42

42:                                               ; preds = %35, %33
  %43 = phi i64 [ %34, %33 ], [ %41, %35 ]
  store i64 %43, ptr %5, align 8
  br label %44

44:                                               ; preds = %42, %19
  %45 = load ptr, ptr %3, align 8
  %46 = getelementptr inbounds nuw %struct.job_details_t, ptr %45, i32 0, i32 41
  %47 = load i32, ptr %46, align 8
  %48 = icmp ne i32 %47, 0
  br i1 %48, label %49, label %65

49:                                               ; preds = %44
  %50 = load i64, ptr %5, align 8
  %51 = load ptr, ptr %3, align 8
  %52 = getelementptr inbounds nuw %struct.job_details_t, ptr %51, i32 0, i32 41
  %53 = load i32, ptr %52, align 8
  %54 = sext i32 %53 to i64
  %55 = icmp sgt i64 %50, %54
  br i1 %55, label %56, label %58

56:                                               ; preds = %49
  %57 = load i64, ptr %5, align 8
  br label %63

58:                                               ; preds = %49
  %59 = load ptr, ptr %3, align 8
  %60 = getelementptr inbounds nuw %struct.job_details_t, ptr %59, i32 0, i32 41
  %61 = load i32, ptr %60, align 8
  %62 = sext i32 %61 to i64
  br label %63

63:                                               ; preds = %58, %56
  %64 = phi i64 [ %57, %56 ], [ %62, %58 ]
  store i64 %64, ptr %5, align 8
  br label %65

65:                                               ; preds = %63, %44
  %66 = load i64, ptr %5, align 8
  call void @llvm.lifetime.end.p0(i64 8, ptr %5) #4
  ret i64 %66
}