; Function Attrs: mustprogress nofree norecurse nosync nounwind willreturn memory(argmem: read) uwtable
define dso_local range(i64 0, 4294967296) i64 @eval_nodes_get_rem_max_cpus(ptr noundef readonly captures(none) %0, i32 noundef %1) local_unnamed_addr #4 {
  %3 = getelementptr inbounds nuw i8, ptr %0, i64 268
  %4 = load i32, ptr %3, align 4
  %5 = getelementptr inbounds nuw i8, ptr %0, i64 232
  %6 = load i32, ptr %5, align 8
  %.not = icmp eq i32 %6, -2
  %spec.select = select i1 %.not, i32 %4, i32 %6
  %.0 = zext i32 %spec.select to i64
  %7 = getelementptr inbounds nuw i8, ptr %0, i64 276
  %8 = load i32, ptr %7, align 4
  %.not20 = icmp eq i32 %8, 0
  %9 = mul nsw i32 %8, %1
  %10 = sext i32 %9 to i64
  %.0. = tail call i64 @llvm.smax.i64(i64 %.0, i64 %10)
  %.1 = select i1 %.not20, i64 %.0, i64 %.0.
  %11 = getelementptr inbounds nuw i8, ptr %0, i64 280
  %12 = load i32, ptr %11, align 8
  %.not21 = icmp eq i32 %12, 0
  %13 = sext i32 %12 to i64
  %.1. = tail call i64 @llvm.smax.i64(i64 %.1, i64 %13)
  %.2 = select i1 %.not21, i64 %.1, i64 %.1.
  ret i64 %.2
}